; Function Attrs: mustprogress uwtable
define internal noundef zeroext i1 @_ZZN28b3HashedOverlappingPairCache19cleanProxyFromPairsEiP12b3DispatcherEN17CleanPairCallback14processOverlapER6b3Int4(ptr noundef nonnull readonly align 8 captures(none) dereferenceable(32) %0, ptr noundef nonnull align 16 dereferenceable(16) %1) unnamed_addr #0 align 2 {
  %3 = load i32, ptr %1, align 16, !tbaa !30
  %4 = getelementptr inbounds nuw i8, ptr %0, i64 8
  %5 = load i32, ptr %4, align 8, !tbaa !38
  %6 = icmp eq i32 %3, %5
  %7 = getelementptr inbounds nuw i8, ptr %1, i64 4
  %8 = load i32, ptr %7, align 4
  %9 = icmp eq i32 %8, %5
  %or.cond = select i1 %6, i1 true, i1 %9
  br i1 %or.cond, label %10, label %18

10:                                               ; preds = %2
  %11 = getelementptr inbounds nuw i8, ptr %0, i64 16
  %12 = load ptr, ptr %11, align 8, !tbaa !43
  %13 = getelementptr inbounds nuw i8, ptr %0, i64 24
  %14 = load ptr, ptr %13, align 8, !tbaa !44
  %15 = load ptr, ptr %12, align 8, !tbaa !4
  %16 = getelementptr inbounds nuw i8, ptr %15, i64 40
  %17 = load ptr, ptr %16, align 8
  tail call void %17(ptr noundef nonnull align 8 dereferenceable(8) %12, ptr noundef nonnull align 16 dereferenceable(16) %1, ptr noundef %14)
  br label %18

18:                                               ; preds = %2, %10
  ret i1 false
}